(dp1
VReddit Enhancement Suite
p2
(dp3
VGo to subreddit of selected link (link pages only)
p4
VR
sVGo to inbox in a new tab.
p5
VG then \u21e7I
p6
sVGo to inbox
p7
VG then I
p8
sVGo to a random subreddit.
p9
V\u2325Y
p10
sVMove up to the previous link or comment in flat lists
p11
VK
sVGo to subreddit front page.
p12
V\u21e7F
p13
sVSave the current post to your reddit account (not preserved if deleted or edited)
p14
VS
sVFollow link in new tab (link pages only)
p15
V\u21e7\u21a9
p16
sVUpvote selected link or comment (or remove the upvote).
p17
VA
sVSave the current comment with RES (preserved locally)
p18
VS
sVGo to previous page (link list pages only).
p19
VG then P
p20
sVUpvote selected link or comment (but don't remove the upvote).
p21
V\u21e7A
p22
sVEnter 'goMode' (before using 'go to' shortcuts).
p23
VG
sVFocuses the cursor in the search box.
p24
V\u2325/
p25
sVMove to bottom of list (on link pages)
p26
V\u21e7J
p27
sVMove to top of list (on link pages)
p28
V\u21e7K
p29
sVRemoves the height restriction of image(s) in the highlighted post area
p30
V\u21e7\u2192
p31
sVView the next image of an inline gallery
p32
V]
sVView link and comments in new tabs.
p33
VL
sVGo to /r/all.
p34
V\u2325A
p35
sVMove the image(s) in the highlighted post area down
p36
VMove the image(s) in the highlighted post area down.
p37
sVView comments for link (\u21e7 opens them in a new tab)
p38
VC
sVLaunch filter command line
p39
VH
sVView the previous image of an inline gallery
p40
V[
sVGo to modmail in a new tab.
p41
VG then \u21e7M
p42
sVDownvote selected link or comment (but don't remove the downvote).
p43
V\u21e7Z
p44
sVGo to profile.
p45
VG then U
p46
sVShow help for keyboard shortcuts
p47
V\u21e7/
p48
sVToggle expando (image/text/video)
p49
VX
sVMove the image(s) in the highlighted post area left
p50
V\u2303\u2190
p51
sVDownvote selected link or comment (or remove the downvote).
p52
VZ
sVGo to modmail.
p53
VG then M
p54
sVMove down to the next link or comment in flat lists
p55
VJ
sVGo to subreddit of selected link in a new tab (link pages only).
p56
V\u21e7R
p57
sVIncrease the size of image(s) in the highlighted post area (finer control)
p58
V\u21e7=
p59
sVDecrease the size of image(s) in the highlighted post area
p60
V-
sVGo to next page (link list pages only).
p61
VG then N
p62
sVMove the image(s) in the highlighted post area up
p63
V\u2303\u2191
p64
sVToggle 'show images' button
p65
V\u21e7X
p66
sVIncrease the size of image(s) in the highlighted post area
p67
V=
sVGo to profile in a new tab.
p68
VG then \u21e7U
p69
sVMove the image(s) in the highlighted post area right
p70
V\u2303\u2192
p71
sVFollow link (link pages only)
p72
V\u21a9
sVGo to front page.
p73
VG then F
p74
sVView comments for link in a new tab
p75
V\u21e7C
p76
sVView link and comments in new background tabs.
p77
V\u21e7L
p78
sVLaunch RES command line
p79
V/
sVDecrease the size of image(s) in the highlighted post area (finer control)
p80
V\u21e7-
p81
ssVzshell
p82
(dp83
Vgit diff --cached
p84
Vgdca
p85
sVUptake new changes
p86
Vsource ~/.zshrc
p87
sVgit pull origin $(current_branch)
p88
Vggl
p89
sVgit blame -b -w
p90
Vgbl
p91
sVgit tag -s
p92
Vgts
p93
sVswitch to directory number n (2-9)
p94
Vcd +n
p95
sVtmux attach -t
p96
Vta
p97
sVgit remote
p98
Vgr
p99
sVgit push
p100
Vgp
p101
sVgit remote rename
p102
Vgrmv
p103
sVtab-completeion sudo unmount
p104
Vsudo unmount(tab)
p105
sVtmux attach -d -t
p106
Vtad
p107
sVgit cherry-pick --abort
p108
Vgcpa
p109
sV(When using vi-mode plugin) Edit current command line in Vim
p110
Vv
sVgit pull upstream master
p111
Vglum
p112
sVUninstall Oh-my-zsh.
p113
Vuninstall_oh_my_zsh
p114
sVgit log -n 1 | grep -q -c "--wip--" && git reset HEAD~1
p115
Vgunwip
p116
sVgit add --all
p117
Vgaa
p118
sVgit commit -m
p119
Vgcmsg
p120
sVgit whatchanged -p --abbrev-commit --pretty = medium
p121
Vgwch
p122
sVtmux list-sessions
p123
Vtl
p124
sVgit reset --hard ^^ git clean dfx
p125
Vgpristine
p126
sVgit rebase -i
p127
Vgrbi
p128
sVshow the status of the NAME process
p129
Vsc-status NAME
p130
sVgit mergetool --no-prompt
p131
Vgmt
p132
sVgit show --pretty = short --show-signature
p133
Vgsps
p134
sVstart the NAME process
p135
Vsc-start NAME
p136
sVgit log --graph --decorate --all
p137
Vglgga
p138
sVcd /
p139
V/
sVExtract an archive (supported types: tar.{bz2,gz,xz,lzma}, bz2, rar, gz, tar, tbz2, tgz, zip, Z, 7z).
p140
Vx / extract
p141
sVgit pull --rebase
p142
Vgup
p143
sVgit pull origin $(current_branch) && git push origin $(current_branch)
p144
Vggpnp
p145
sVgit log --graph --max-count = 10
p146
Vglgg
p147
sVgit status
p148
Vgst
p149
sVgit cherry-pick
p150
Vgcp
p151
sVcd $(git rev-parse --show-toplevel || echo ".")
p152
Vgrt
p153
sVgit commit -v -a --amend
p154
Vgca!
p155
sVgit bisect
p156
Vgbs
p157
sVgit checkout -b
p158
Vgcb
p159
sVgit add -A; git ls-files --deleted -z | xargs -r0 git rm; git commit -m "--wip--"
p160
Vgwip
p161
sVcd ../../..
p162
V....
p163
sVgit clean -fd
p164
Vgclean
p165
sVtmux kill-server
p166
Vtksv
p167
sVgit verify-tag
p168
Vgvt
p169
sVgit reset HEAD --hard
p170
Vgrhh
p171
sVgit log --stat --max-count = 10
p172
Vglg
p173
sVgit rebase --continue
p174
Vgrbc
p175
sVtab-completeion cap
p176
Vcap (tab)
p177
sVgitk --all --branches
p178
Vgk
p179
sVgit pull --rebase origin $(current_branch)
p180
Vggpur
p181
sVgit gui citool --amend
p182
Vgga
p183
sVgit checkout develop
p184
Vgcd
p185
sVgit cherry-pick --continue
p186
Vgcpc
p187
sVgit fetch --all --prune
p188
Vgfa
p189
sVgit log --oneline --decorate --color --graph
p190
Vglog
p191
sVcd ..
p192
V..
p193
sVgit bisect start
p194
Vgbss
p195
sVgit diff-tree --no-commit-id --name-only -r
p196
Vgdt
p197
sVgit stash save
p198
Vgsta
p199
sVgit update-index --assume-unchanged
p200
Vgignore
p201
sVgit branch --no-merged
p202
Vgbnm
p203
sVSymfony2 - sf debug:router
p204
Vsfroute
p205
sVgit stash drop
p206
Vgstd
p207
sVgit reset HEAD
p208
Vgrh
p209
sVgit checkout
p210
Vgco
p211
sVSymfony2 - sf cache:warmup
p212
Vsfcw
p213
sVtab-completeion unrar
p214
Vunrar (tab)
p215
sVenable the NAME process to start at boot
p216
Vsc-enable NAME
p217
sVgit remote update
p218
Vgrup
p219
sVtab-completeion rake
p220
Vrake (tab)
p221
sVgit commit -v -a
p222
Vgca
p223
sVgit status -s
p224
Vgss
p225
sVgit commit -v
p226
Vgc
p227
sVgit ls-files -v | grep "^[[:lower:]]"
p228
Vgignored
p229
sVgit
p230
Vg
sVSymfony2 - php app/console cache:clear
p231
Vsfcl
p232
sVgit commit -s -m
p233
Vgcsm
p234
sVSymfony2 - sf server:run -vvv
p235
Vsfsr
p236
sVcd ../../../..
p237
V.....
p238
sVGet a list of the top 20 commands and how many times they have been run.
p239
Vzsh_stats
p240
sVgit commit -S
p241
Vgcs
p242
sVgit merge
p243
Vgm
p244
sVSymfony2 - sf generate:bundle
p245
Vsfgb
p246
sVgit remote set-url
p247
Vgrset
p248
sVSymfony2 - php ./app/console
p249
Vsf
p250
sVshow the NAME systemd .service file
p251
Vsc-show NAME
p252
sVgit rebase --abort
p253
Vgrba
p254
sVgit stash list
p255
Vgstl
p256
sVgit add --patch
p257
Vgapa
p258
sVtmux kill-session -t
p259
Vtkss
p260
sVgit diff
p261
Vgd
p262
sVgit branch -a
p263
Vgba
p264
sVgit branch -d
p265
Vgbd
p266
sVgit push origin $(current_branch)
p267
Vggp
p268
sVgit bisect good
p269
Vgbsg
p270
sVgit commit -a -m
p271
Vgcam
p272
sV_git_log_prettily (git log --pretty=$1)
p273
Vglp
p274
sVUpgrade Oh-my-zsh.
p275
Vupgrade_oh_my_zsh
p276
sVgit checkout master
p277
Vgcm
p278
sVgit commit -v -a --no-edit --amend
p279
Vgcan!
p280
sVstop the NAME process
p281
Vsc-stop NAME
p282
sVgit branch --set-upstream-to=origin/$(current_branch)
p283
Vggsup
p284
sVgit branch --remote
p285
Vgbr
p286
sVtab-completeion ls
p287
Vls (tab)
p288
sVSymfony2 - sf debug:container
p289
Vsfcontainer
p290
sV(When using sublime plugin) Open current directory in Sublime Text 2/3
p291
Vstt
p292
sVtab-completeion kill
p293
Vkill (tab)
p294
sVgit svn rebase
p295
Vgsr
p296
sVgit clone --recursive
p297
Vgcl
p298
sVgit commit -v --amend
p299
Vgc!
p300
sVcd ~
p301
V~
sVgit push origin --all && git push origin --tags
p302
Vgpoat
p303
sVgit pull
p304
Vgl
p305
sVtab-completeion ssh
p306
Vssh (tab)
p307
sVgit fetch
p308
Vgf
p309
sVgit remote remove
p310
Vgrrm
p311
sVgit bisect bad
p312
Vgbsb
p313
sVCreate a new directory and change to it, will create intermediate directories as required.
p314
Vtake
p315
sVgit bisect reset
p316
Vgbsr
p317
sVgit stash pop
p318
Vgstp
p319
sVgit svn dcommit && git push github master:svntrunk
p320
Vgit-svn-dcommit-push
p321
sVDynamic access to current branch name with the current_branch function
p322
Vgrb publish $(current_branch) origin
p323
sVgit commit -v -a -s --no-edit --amend
p324
Vgcans!
p325
sVgit add
p326
Vga
p327
sVgit remote -v
p328
Vgrv
p329
sVgit stash show --text
p330
Vgsts
p331
sVrestart the NAME process
p332
Vsc-restart NAME
p333
sVgit update-index --no-assume-unchanged
p334
Vgunignore
p335
sVcd ../..
p336
V...
p337
sVgit log --oneline --decorate --color
p338
Vglo
p339
sVdisable the NAME process at boot
p340
Vsc-disable NAME
p341
sVgit rebase --skip
p342
Vgrbs
p343
sVgit branch
p344
Vgb
p345
sVgit diff --word-diff
p346
Vgdw
p347
sVlist all aliases
p348
Valias
p349
sVCreate a new tab in the current directory (macOS - requires enabling access for assistive devices under System Preferences).
p350
Vtabs
p351
sVgit config --list
p352
Vgcf
p353
sVgit svn dcommit
p354
Vgsd
p355
sVgit describe --tags `git rev-list --tags --max-count=1`
p356
Vgdct
p357
sVtmux new-session -s
p358
Vts
p359
sVgit stash apply
p360
Vgstaa
p361
sVgit shortlog -sn
p362
Vgcount
p363
sVgit gui citool
p364
Vgg
p365
sVgit fetch origin
p366
Vgfo
p367
ssVVideo Speed Controller chrome extension
p368
(dp369
VPreferred speed
p370
VG
sVShow/hide controller
p371
VV
sVAdvance
p372
VX
sVDecrease speed
p373
VS
sVReset speed
p374
VR
sVRewind
p375
VZ
sVIncrease speed
p376
VD
ssVyoutube.com
p377
(dp378
VPause/Play video (player)
p379
VSpace
p380
sVClose the current dialog or similar dialogs (share panel)
p381
VEsc
p382
sVPause/Play video
p383
Vk
sVRotate through font sizes (increasing)
p384
V+
sVSeek to the end of the video
p385
VEND
p386
sVSeek forwards by 5 seconds
p387
V\u2192
sVRewind 10 seconds
p388
Vj
sVDecrease the volume by 5%
p389
V\u2193
sVSeek to the beginning of the video
p390
VHOME
p391
sVSeek backwards by smallest amount possible, when video is paused
p392
V,
sVRotate through different text opacity levels
p393
Vo
sVKeyboard shortcuts
p394
V\u21e7/
p395
sVNext video
p396
V\u21e7n
p397
sVFastfoward 10 seconds
p398
Vl
sVRotate through different window opacity levels
p399
Vw
sVIncrease the volume by 5%
p400
V\u2191
sVWhen viewing a spherical video, pan up
p401
Vw
sVWhen viewing a spherical video, pan left
p402
Va
sVToggle Mute
p403
Vm
sVToggle full screen
p404
Vf
sVIf the video supports captions, toggle captions ON/OFF
p405
Vc
sVDecrease playback rate
p406
V< (^,)
p407
sVPrevious video
p408
V\u21e7p
p409
sVSeek backwards by 5 seconds (player)
p410
V\u2190
sVSeek to specific point in the video (7 advances to 70% of duration)
p411
V0..9
p412
sVIncrease playback rate
p413
V> (^.)
p414
sVRotate through font sizes (decreasing)
p415
V-
sVSeek forwards by smallest amount possible, when video is paused
p416
V.
ssVgithub.com
p417
(dp418
VNetwork Graph - Scroll up
p419
V\u2191 or k
p420
sVCode editing - Replace All
p421
V\u21e7\u2318\u2325f
p422
sVCode editing - Find next
p423
V\u2318g
p424
sVCode editing - Start searching in file editor
p425
V\u2318f
p426
sVFocus the search bar
p427
Vs
sVComments - Markdown to create a link
p428
V\u2318k
p429
sVIssue/PR lists - Quote the selected text in your reply
p430
Vr
sVGo to the Issues tab
p431
Vg then i
p432
sVProject boards - Moving a card - Move card up
p433
V\u2191 or k
p434
sVCode browsing - Expand a URL to its canonical form
p435
Vy
sVIssue/PR - Apply a label
p436
Vl
sVNetwork Graph - Scroll right
p437
V\u2192 or l
p438
sVProject boards - Moving a card - Move card down
p439
V\u2193 or j
p440
sVProject boards - Moving a card - Move card to the top of the column
p441
V\u2318\u2191 or \u2318k
p442
sVIssue/PR - Set an assignee
p443
Va
sVCode browsing - Open blame view
p444
Vb
sVIssue/PR lists - Open issue
p445
Vo or \u23ce
p446
sVNetwork Graph - Scroll down
p447
V\u2193 or j
p448
sVIssue/PR - Request a reviewer
p449
Vq
sVGo to the Code tab
p450
Vg then c
p451
sVProject boards - Moving a card - Cancel the move in progress
p452
VEsc
p453
sVProject boards - Moving a card - Move card to the bottom of the column on the left
p454
V\u2190 or h
p455
sVCode browsing - Activates the file finder
p456
Vt
sVCode browsing - Switch to a new branch or tag
p457
Vw
sVCode editing - Redo
p458
V\u2318y
p459
sVIssue/PR lists - Filter by or edit milestones
p460
Vm
sVNetwork Graph - Scroll all the way left
p461
V\u21e7\u2190 or \u21e7h
p462
sVProject boards - Moving a card - Move card to the bottom of the leftmost column
p463
V\u2318\u2190 or \u2318h
p464
sVGo to the Wiki tab
p465
Vg then w
p466
sVProject boards - Moving a card - Start moving the focused card
p467
V\u23ce or Space
p468
sVNetwork Graph - Scroll left
p469
V\u2190 or h
p470
sVComments - Markdown to bold text
p471
V\u2318b
p472
sVCode editing - Replace
p473
V\u2318\u2325f
p474
sVProject boards - Moving a column - Move column to the right
p475
V\u2192 or l
p476
sVProject boards - Moving a column - Move column to the left
p477
V\u2190 or h
p478
sVProject boards - Moving a column - Move column to the leftmost postition
p479
V\u2318\u2190 or \u2318h
p480
sVProject boards - Moving a column - Complete the move in progress
p481
V\u23ce
sVNetwork Graph - Scroll all the way right
p482
V\u21e7\u2192 or \u21e7l
p483
sVProject boards - Moving a column - Start moving the focused column
p484
V\u23ce or Space
p485
sVProject boards - Moving a column - Move column to the rightmost postition
p486
V\u2318\u2192 or \u2318l
p487
sVPR changes - Open the list of changed files in the pull request
p488
Vt
sVGo to the Projects tab
p489
Vg then b
p490
sVIssue/PR lists - Filter by or edit assignee
p491
Va
sVProject boards - Moving a column - Cancel the move in progress
p492
VEsc
p493
sVPR changes - Move selection up in the list
p494
Vk
sVCode editing - Undo
p495
V\u2318z
p496
sVIssue/PR lists - Focus the issues search bar
p497
V/
sVIssue/PR - Set a milestone
p498
Vm
sVProject boards - Moving a card - Move card to the top of the column on the right
p499
V\u21e7\u2192 or \u21e7l
p500
sVIssue/PR lists - Filter by author
p501
Vu
sVNotifications - Mark as read
p502
Ve or l or y
p503
sVComments - Toggles between the Write and Preview comment tabs
p504
V\u2318\u21e7p
p505
sVNetwork Graph - Scroll all the way down
p506
V\u21e7\u2193 or \u21e7j
p507
sVIssue/PR lists - Create an issue
p508
Vc
sVProject boards - Moving a card - Complete the move in progress
p509
V\u23ce
sVPR changes - Move selection down in the list
p510
Vj
sVGo to the Pull reuests tab
p511
Vg then p
p512
sVGo to your notifications
p513
Vg then n
p514
sVProject boards - Moving a card - Move card to the bottom of the column
p515
V\u2318\u2193 or \u2318j
p516
sVCode browsing - Show or hide comments on diffs
p517
Vi
sVProject boards - Moving a card - Move card to the bottom of the column on the right
p518
V\u2192 or l
p519
sVCode editing - Find previous
p520
V\u2318\u21e7g
p521
sVComments - Submits a comment
p522
V^\u23ce
p523
sVCode browsing - Jump to a line in your code
p524
Vl
sVProject boards - Moving a card - Move card to the bottom of the rightmost column
p525
V\u2318\u2192 or \u2318l
p526
sVNotifications - Mute thread
p527
V\u21e7m
p528
sVProject boards - Moving a card - Move card to the top of the rightmost column
p529
V\u2318\u21e7\u2192 or \u2318\u21e7l
p530
sVPR changes - Open the list of commits in the PR
p531
Vc
sVIssue/PR lists - Filter by or edit labels
p532
Vl
sVProject boards - Moving a card - Move card to the top of the column on the left
p533
V\u21e7\u2190 or \u21e7h
p534
sVCode editing - Jump to line
p535
V\u2325g
p536
sVNetwork Graph - Scroll all the way up
p537
V\u21e7\u2191 or \u21e7k
p538
sVProject boards - Moving a card - Move card to the top of the leftmost column
p539
V\u2318\u21e7\u2190 or \u2318\u21e7h
p540
sVComments - Markdown to italicize text
p541
V\u2318i
p542
ssVMac OSX
p543
(dp544
VSave the current document.
p545
V\u2318S
p546
sVClose the front window
p547
V\u2318W
p548
sVSwitch apps: Switch to the next most recently used app among your open apps.
p549
V\u2318Tab
p550
sVForce Quit: choose app to quit and hold for 3 seconds to .
p551
V\u2325\u2318Esc
p552
sVNew: Open an new document or window.
p553
V\u2318N
p554
sVLog out of your macOS user account.
p555
V\u21e7\u2318Q
p556
sVScreenshot: Take a screenshot of the entire screen.
p557
V\u21e7\u23183
p558
sVHide the windows of the front app.
p559
V\u2318H
p560
sVCut the selected item and copy it to the Clipboard.
p561
V\u2318X
p562
sVCopy the selected item to the Clipboard.
p563
V\u2318C
p564
sVQuit all apps, then restart your Mac.
p565
VCtrl \u2318\u23cf
p566
sVPut your displays to sleep.*
p567
VCtrl \u21e7 Power button or Ctrl \u21e7\u23cf
p568
sVPaste the contents of the Clipboard into the current document or app.
p569
V\u2318V
p570
sVLog out of your macOS user account immediately, without being asked to confirm.
p571
V\u2325\u21e7\u2318Q
p572
sVUndo the previous command.
p573
V\u2318Z
p574
sVPress to turn on your Mac or wake your Mac from sleep.
p575
VPower button
p576
sVDisplay a dialog asking if you want to sleep, restart, or shut down.
p577
VPress and hold Power Button for 1.5 seconds or Ctrl Power button or Ctrl \u23cf
p578
sVQuick Look: Use Quick Look to preview the selected item.
p579
VSpace
p580
sVMinimize all windows of the front app
p581
V\u2318\u2325M
p582
sVview the front app but hide all other apps
p583
V\u2318\u2325H
p584
sVForce Quit: just the front app to quit
p585
Vpress \u2318\u21e7\u2325Esc and hold for 3 sec
p586
sVQuit all apps, then shut down your Mac.
p587
VCtrl \u2325\u2318 Power button or Ctrl \u2325\u2318\u23cf
p588
sVFind Again: Find the previous occurrence of the item previously found
p589
V\u2318\u21e7G
p590
sVRedo, reversing the undo command.
p591
V\u2318\u21e7Z
p592
sVPrint the current document.
p593
V\u2318P
p594
sVSelect All items.
p595
V\u2318A
p596
sVclose all windows of the app
p597
V\u2318\u2325W
p598
sVPreferences: Open preferences for the front app.
p599
V\u2318,
p600
sVFind Again: Find the next occurrence of the item previously found.
p601
V\u2318G
p602
sVMinimize the front window to the Dock.
p603
V\u2318M
p604
sVFind items in a document or open a Find window.
p605
V\u2318F
p606
sVScreenshot: Take a screenshot of part of the screen
p607
V\u21e7\u23184
p608
sVSwitch windows: Switch to the next most recently used window of the front app.
p609
V\u21e7\u2318~
p610
sVOpen the selected item, or open a dialog to select a file to open.
p611
V\u2318O
p612
sVForce your Mac to restart.
p613
VCtrl \u2318 Power button
p614
sVForce your Mac to turn off.
p615
VPress and hold Power Button for 5 seconds
p616
sVSpotlight
p617
V\u2318Space
p618
sVQuit the app.
p619
V\u2318Q
p620
ssViTerm2
p621
(dp622
VMove Tab Left
p623
V\u21e7\u2318\u2190
p624
sVGo Right One Word
p625
V\u2325\u2192
p626
sVNext Tab
p627
V\u2318\u2192
p628
sVClear line
p629
V^u
p630
sVScroll One Line Down
p631
V\u2318\u2193
p632
sVNew Tab
p633
V\u2318T
p634
sVHighlight cursour
p635
V\u2318/
p636
sVClear buffer
p637
V\u2318K
p638
sVSplit Horizontally with Current Profile
p639
V\u21e7\u2318D
p640
sVPrevious Pane
p641
V\u2318[
p642
sVClear Window
p643
V^L
p644
sVNext Pane
p645
V\u2318]
p646
sVPrevious Tab
p647
V\u2318\u2190
p648
sVScroll To End
p649
V\u2318End
p650
sVScroll To Top
p651
V\u2318Home
p652
sVSelect Pane Above
p653
V\u2325\u2318\u2191
p654
sVSplit Vertically with Current Profile
p655
V\u2318D
p656
sVGo Left One Word
p657
V\u2325\u2190
p658
sVSelect Pane Left
p659
V\u2325\u2318\u2190
p660
sVMake Text Normal Size
p661
V\u23180
p662
sVMake Text Bigger
p663
V\u2318+
p664
sVClose Tab
p665
V\u2318w
p666
sVMove Tab Right
p667
V\u21e7\u2318\u2192
p668
sVScroll One Line Up
p669
V\u2318\u2191
p670
sVMake Text Smaller
p671
V\u2318-
p672
sVSelect Pane Below
p673
V\u2325\u2318\u2193
p674
sVScroll One Page Up
p675
V\u2318Page Up or \u21e7Page Up
p676
sVScroll One Page Down
p677
V\u2318Page Down or \u21e7Page Down
p678
sVSelect Pane Right
p679
V\u2325\u2318\u2192
p680
sVFind
p681
V\u2318F
p682
ssVVim
p683
(dp684
Vjump to previous occurence of character x
p685
VFx
p686
sVvisual - a block with ()
p687
Vab
p688
sVstart visual block mode
p689
V^v
p690
sVput (paste) the clipboard after cursor
p691
Vp
sVclose current pane
p692
V:close
p693
sVgo to the next buffer
p694
V:bnext or :bn
p695
sVdelete (cut) character
p696
Vx
sVinsert at the beginning of the line
p697
VI
sVrecord macro a
p698
Vqa
p699
sVmove back one full screen
p700
V\u2303b
p701
sVmove to top of screen
p702
VH
sVsearch - jump to the next match
p703
V:cn
p704
sVjump forwards to the start of a word
p705
Vw
sVmove the current split window into its own tab
p706
VCtrl + wT
p707
sVrepeat previous f, t, F or T movement
p708
V;
sVwrite out the current file using sudo
p709
V:w !sudo tee %
p710
sVgo to the first line of the document
p711
Vgg
p712
sVsearch for pattern in multiple files
p713
V:vimgrep /pattern/ {file}
p714
sVvisual - move to other corner of block
p715
VO
sVmove to tab number #
p716
V#gt
p717
sVclose all tabs except for the current one
p718
V:tabonly or :tabo
p719
sVjump to the last non-blank character of the line
p720
Vg_
p721
sVmove forward one full screen
p722
V\u2303f
p723
sVopen man page for word under the cursor
p724
VK
sVyank (copy) marked text
p725
Vy
sVmove cursor to the left window (vertical split)
p726
VCtrl + wh
p727
sVwrite (save) and quit on all tabs
p728
V:wqa
p729
sVmove cursor up
p730
Vk
sVjump to after previous occurence of character x
p731
VTx
p732
sVput (paste) before cursor
p733
VP
sVvisual - inner block with {}
p734
ViB
p735
sVjump to previous paragraph (or function/block, when editing code)
p736
V{
sVmove cursor left
p737
Vh
sVdelete (cut) 2 lines
p738
V2dd
p739
sVmove forward 1/2 a screen
p740
V\u2303d
p741
sVclose the current tab and all its windows
p742
V:tabclose or :tabc
p743
sVyank text to position of mark A
p744
Vy`a
p745
sVjump forwards to the end of a word (words can contain punctuation)
p746
VE
sVquit (fails if there are unsaved changes)
p747
V:q
p748
sVyank (copy) to end of line
p749
Vy$
p750
sVmove back 1/2 a screen
p751
V\u2303u
p752
sVstop recording macro
p753
Vq
sVshift text right
p754
V>
sVgo to line 5
p755
V5G
p756
sVyank (copy) the characters of the word from the cursor position to the start of the next word
p757
Vyw
p758
sVcommand - run the command on all tabs (e.g. :tabdo q - closes all opened tabs)
p759
V:tabdo
p760
sVtranspose two letters (delete and paste)
p761
Vxp
p762
sVlist of marks
p763
V:marks
p764
sVopen help for keyword
p765
V:help keyword
p766
sVmove cursor to the right window (vertical split)
p767
VCtrl + wl
p768
sVjump to before next occurrence of character x
p769
Vtx
p770
sVmove cursor right
p771
Vl
sVjump to next occurrence of character x
p772
Vfx
p773
sVdelete (cut) to the end of the line
p774
Vd$
p775
sVinsert (append) at the end of the line
p776
VA
sVinsert (append) after the cursor
p777
Va
sVopen a file in a new tab
p778
V:tabnew or :tabnew file
p779
sVinsert (append) at the end of the word
p780
Vea
p781
sVvisual - move to other end of marked area
p782
Vo
sVjump to position of mark A
p783
V'a
p784
sVundo
p785
Vu
sVjump forwards to the end of a word
p786
Ve
sVdelete line and substitute text (same as cc)
p787
VS
sVwrite (save) and quit
p788
V:wq or :x or ZZ
p789
sVstart visual mode, mark lines, then do a command (like y-yank)
p790
Vv
sVreplace a single character
p791
Vr
sVvisual - inner block with ()
p792
Vib
p793
sVjoin line below to the current one
p794
VJ
sVjump to next paragraph (or function/block, when editing code)
p795
V}
sVquit a window
p796
VCtrl + wq
p797
sVstart linewise visual mode
p798
VV
sVappend (open) a new line below the current line
p799
Vo
sVyank (copy) a line
p800
Vyy
p801
sVappend (open) a new line above the current line
p802
VO
sVyank (copy) 2 lines
p803
V2yy
p804
sVchange (replace) to the end of the word
p805
Vcw
p806
sVsplit window vertically
p807
VCtrl + wv
p808
sVmove cursor down
p809
Vj
sVredo
p810
V\u2303r
p811
sVchange (replace) entire line
p812
Vcc
p813
sVjump forwards to the start of a word (words can contain punctuation)
p814
VW
sVmove cursor to the window above (horizontal split)
p815
VCtrl + wk
p816
sVgo to the previous buffer
p817
V:bprev or :bp
p818
sVmove to the next tab
p819
Vgt or :tabnext or :tabn
p820
sVmove cursor to the window below (horizontal split)
p821
VCtrl + wj
p822
sVswitch case
p823
V~
sVjump to the start of the line
p824
V0
sVpaste contents of register x
p825
V"xp
p826
sVshow registers content
p827
V:reg
p828
sVrepeat last command
p829
V.
sVrerun last run macro
p830
V@@
p831
sVsearch - jump to the previous match
p832
V:cp
p833
sVswitch windows
p834
VCtrl + ww
p835
sVexit insert/visual mode
p836
VEsc
p837
sVdelete (cut) a line
p838
Vdd
p839
sVvisual - mark a word
p840
Vaw
p841
sVopen a file in a new buffer and vertically split window
p842
V:vsp file
p843
sVjump to the end of the line
p844
V$
sVdelete character and substitute text
p845
Vs
sVopen a file in a new buffer and split window
p846
V:sp file
p847
sVopen file
p848
V:o file
p849
sVmove to matching character (default supported pairs: '()', '{}', '[]')
p850
V%
sVjump backwards to the start of a word
p851
Vb
sVsearch - open a window containing the list of matches
p852
V:copen
p853
sVchange (replace) to the end of the line
p854
Vc$
p855
sVmove current tab to the #th position (indexed from 0)
p856
V:tabmove #
p857
sVwrite (save) the file, but don't exit
p858
V:w
p859
sVset current position for mark A
p860
Vma
p861
sVinsert before the cursor
p862
Vi
sVjump to the first non-blank character of the line
p863
V^
sVjump backwards to the start of a word (words can contain punctuation)
p864
VB
sVedit a file in a new buffer
p865
V:e file
p866
sVyank into register x
p867
V"xy
p868
sVmove to middle of screen
p869
VM
sVrun macro a
p870
V@a
p871
sVsave file as
p872
V:saveas file
p873
sVgo to the last line of the document
p874
VG
sVdelete a buffer (close a file)
p875
V:bd
p876
sVshift text left
p877
V<
sVcenter cursor on screen
p878
Vzz
p879
sVsplit window
p880
VCtrl + ws
p881
sVquit and throw away unsaved changes
p882
V:q! or ZQ
p883
sVdelete (cut) the characters of the word from the cursor position to the start of the next word
p884
Vdw
p885
sVmove to the previous tab
p886
VgT or :tabprev or :tabp
p887
sVlist all open buffers
p888
V:ls
p889
sVrepeat previous f, t, F or T movement, backwards
p890
V,
sVdelete marked text
p891
Vd
sVmove to bottom of screen
p892
VL
ssVTerminal
p893
(dp894
VMove cursor one word forward
p895
V\u2325\u2192
p896
sVSwap the last two characters before the cursor
p897
VCtrl T
p898
sVGo to the beginning of the line you are currently typing on.
p899
VCtrl A
p900
sVUndo the last command.
p901
VCtrl \u21e7-
p902
sVCut everything forward to end of line
p903
VCtrl K
p904
sVCut everything backwards to beginning of line
p905
VCtrl U
p906
sVGo to the end of the line you are currently typing on.
p907
VCtrl E
p908
sVAuto-complete files and folder names
p909
VTab
p910
sVMove cursor one character forward
p911
VCtrl F
p912
sVClears everything on current line
p913
VCtrl Q
p914
sVMove cursor one word backward
p915
V\u2325\u2190
p916
sVClears the Screen
p917
V\u2318K
p918
sVPaste whatever was cut by the last cut command
p919
VCtrl Y
p920
sVSame as backspace
p921
VCtrl H
p922
sVSwap the last two words before the cursor
p923
VEsc T
p924
sVPuts whatever you are running into a suspended background process. fg restores it.
p925
VCtrl Z
p926
sVMove cursor one character backward
p927
VCtrl B
p928
sVExit the current shell when no process is running, or send EOF to a the running process
p929
VCtrl D
p930
sVCut one word backwards using white space as delimiter
p931
VCtrl  W
p932
sVKill whatever you are running
p933
VCtrl C
p934
ssVinbox.google.com
p935
(dp936
VList - Next item
p937
Vj or \u2192
p938
sVChat/compose - Underline
p939
V\u2318u
p940
sVFocused item - Forward
p941
Vf
sVEverywhere - Open main menu
p942
V\u21e7m
p943
sVChat/compose - Send
p944
V\u2318\u23ce
p945
sVEverywhere - Toggle and view keyboard shortcuts
p946
V\u21e7?
p947
sVEverywhere - Open Hangouts and focus the search box
p948
Vq
sVFocused item - Select
p949
Vx
sVList - First item
p950
VHome
p951
sVEverywhere - Undo last action
p952
Vz
sVFocused item - Mute
p953
Vm
sVFocused item - Select many items at once
p954
V\u21e7x
p955
sVChat/compose - Advance to previous chat or compose
p956
VCtrl ,
p957
sVChat/compose - Remove formatting
p958
V\u2318\u005c
p959
sVFocused item - Snooze
p960
Vs
sVFocused item - Reply
p961
Vr
sVList - Next message
p962
Vn
sVChat/compose - Bulleted list
p963
V\u2318\u21e78
p964
sVList - Open
p965
V\u23ce or o
p966
sVList - Previous item
p967
Vk or \u2190
p968
sVFocused item - Reply in a new window
p969
V\u21e7r
p970
sVChat/compose - Bold
p971
V\u2318b
p972
sVFocused item - Report as spam
p973
V!
sVChat/compose - Closes compose and deletes empty drafts
p974
VEsc
p975
sVEverywhere - Create reminder
p976
Vt
sVChat/compose - Focus main window (while in chat or compose)
p977
V\u21e7Esc
p978
sVChat/compose - Italics
p979
V\u2318i
p980
sVChat/compose - Focus latest chat or compose
p981
V\u21e7Esc
p982
sVFocused item - Mark done
p983
Ve or y
p984
sVEverywhere - Open Hangouts and focus the conversation list
p985
Vh
sVEverywhere - Compose
p986
Vc
sVList - Previous message
p987
Vp
sVEverywhere - Go to inbox
p988
Vi
sVFocused item - Trash
p989
V#
sVEverywhere - Search
p990
V/
sVFocused item - Reply all in a new window
p991
V\u21e7a
p992
sVList - Close
p993
VEsc or u
p994
sVChat/compose - Advance to next chat or compose
p995
VCtrl .
p996
sVEverywhere - Focus on notification
p997
V\u21e7b
p998
sVFocused item - Reply all
p999
Va
sVFocused item - Pin
p1000
V\u21e7p
p1001
sVFocused item - Toggle move-to menu
p1002
V.
sVFocused item - Mark done and advance
p1003
V] or [
p1004
sVChat/compose - Insert link
p1005
V\u2318k
p1006
sVChat/compose - Numbered list
p1007
V\u2318\u21e77
p1008
ssVGoogle Chrome
p1009
(dp1010
VReturn a tab to its original position
p1011
VPress Esc while dragging
p1012
sVOpen a link, and jump to it (mouse only)
p1013
VDrag a link to a blank area of the tab strip
p1014
sVHide Google Chrome
p1015
V\u2318h
p1016
sVJump to the previous open tab
p1017
V\u2318\u2325\u2190
p1018
sVMove your cursor to the back of the next word in a text field
p1019
V\u2325\u2192
p1020
sVOpen a new window
p1021
V\u2318n
p1022
sVOpen a file from your computer in Google Chrome
p1023
V\u2318o + Select a file
p1024
sVQuit Google Chrome
p1025
V\u2318q
p1026
sVReload your current page
p1027
V\u2318r
p1028
sVOpen the Clear Browsing Data options
p1029
V\u2318\u21e7\u232b
p1030
sVJump to the next match to your Find Bar search
p1031
V\u2318g
p1032
sVJump to the next open tab
p1033
V\u2318\u2325\u2192
p1034
sVAdd www. and .com to a site name, and open it in a new tab
p1035
VType a site name + \u2303\u21e7\u21a9
p1036
sVSave all open tabs as bookmarks in a new folder
p1037
V\u2318\u21e7d
p1038
sVMake everything on the page smaller - zoom out
p1039
V\u2318-
p1040
sVJump to the last tab
p1041
V\u23189
p1042
sVOpen a new tab, and jump to it
p1043
V\u2318t
p1044
sVReload your current page, ignoring cached content
p1045
V\u2318\u21e7r
p1046
sVDisplay non-editable HTML source code for the current page
p1047
V\u2318\u2325u
p1048
sVReopen the last closed tab, and jump to it
p1049
V\u2318\u21e7t
p1050
sVLog in as a different user or browse as a Guest
p1051
V\u2318\u21e7m
p1052
sVMove a tab to a current window (mouse only)
p1053
VDrag the tab into an existing window
p1054
sVShow or hide the Bookmarks Bar
p1055
V\u2318\u21e7b
p1056
sVDisplay your browsing history
p1057
VRight-click Back \u21e6 or Next \u21e8, or click & hold Back \u21e6 or Next \u21e8
p1058
sVOpen a link in a new window
p1059
V\u21e7 + Click a link
p1060
sVStop the page loading
p1061
VEsc
p1062
sVRemove predictions from your address bar
p1063
V\u2193 to highlight + \u21e7fn\u232b
p1064
sVJump to the previous match to your Find Bar search
p1065
V\u2318\u21e7g
p1066
sVJump to a specific tab (1-9)
p1067
V\u2318[NUM]
p1068
sVScroll up a webpage, a screen at a time
p1069
V\u21e7Space
p1070
sVOpen a link, and jump to it
p1071
V\u2318\u21e7 + Click a link
p1072
sVClose all open tabs and the browser
p1073
V\u2318\u21e7w
p1074
sVOpen a new window in Incognito mode
p1075
V\u2318t
p1076
sVJump to the address bar
p1077
V\u2318l
p1078
sVOpen the previous page in your browsing history for the current tab
p1079
V\u2318[ or \u2318\u2190
p1080
sVIncrease the window to full height
p1081
VDouble-click a blank area of the tab strip
p1082
sVOpen the Downloads page in a new tab
p1083
V\u2318\u21e7j
p1084
sVOpen the Settings page in a new tab
p1085
V\u2318,
p1086
sVOpen a tab in a new window (mouse only)
p1087
VDrag the tab out of the tab strip
p1088
sVDownload the target of a link
p1089
V\u2325 + Click a link
p1090
sVOpen a link in new background tab
p1091
V\u2318 + Click a link
p1092
sVOpen the History page in a new tab
p1093
V\u2318y
p1094
sVTurn full-screen mode on or off
p1095
V\u2318\u2303f
p1096
sVOpen the Page Setup dialog
p1097
V\u2318\u2325p
p1098
sVSave the current webpage as a bookmark
p1099
VDrag the web address to the Bookmarks Bar
p1100
sVBrowse clickable items moving backward
p1101
V\u21e7Tab
p1102
sVOpen the Bookmark Manager:
p1103
V\u2318\u2325b
p1104
sVSearch with your default search engine
p1105
VType a search term + \u21a9
p1106
sVWhen Find Bar is open, search for selected text
p1107
V\u2318e
p1108
sVAdd www. and .com to a site name, and open it in the current tab
p1109
VType a site name + \u2303\u21a9
p1110
sVReturn everything on the page to the default size
p1111
V\u23180
p1112
sVOpen the next page in your browsing history for the current tab
p1113
V\u2318] or \u2318\u2192
p1114
sVClose the current tab or pop-up
p1115
V\u2318w
p1116
sVBrowse clickable items moving forward
p1117
VTab
p1118
sVAlways show toolbar in full screen
p1119
V\u2318\u21e7F
p1120
sVScroll down a webpage, a screen at a time
p1121
VSpace
p1122
sVSearch the web
p1123
V\u2318\u2325f
p1124
sVOpen the Find Bar to search the current page
p1125
V\u2318f
p1126
sVOpen the website in a new background tab
p1127
VType a web address + \u2318\u21a9
p1128
sVSave your current webpage as a bookmark
p1129
V\u2318d
p1130
sVView Source
p1131
V\u2318\u2325U
p1132
sVSearch using a different search engine
p1133
VType a search engine name + Tab
p1134
sVDelete the previous word in a text field
p1135
V\u2325\u232b
p1136
sVOpen your home page in the current tab
p1137
V\u2318\u21e7h
p1138
sVOpen a link in a current tab (mouse only)
p1139
VDrag a link to a tab
p1140
sVEmail your current page
p1141
V\u2318\u21e7i
p1142
sVOpen options to print the current page
p1143
V\u2318p
p1144
sVOpen options to save the current page
p1145
V\u2318s
p1146
sVMake everything on the page bigger - zoom in
p1147
V\u2318+
p1148
sVMinimize the window
p1149
V\u2318m
p1150
sVOpen the JavaScript Console
p1151
V\u2318\u2325j
p1152
sVMove your cursor to the front of the previous word in a text field
p1153
V\u2325\u2190
p1154
sVDeveloper Tools
p1155
V\u2318\u2325i
p1156
ssVAlfred
p1157
(dp1158
VSelect the previous item in the list
p1159
V\u2191
sVEnter a folder in File System Navigation
p1160
V\u21a9
sVNavigate to your root folder
p1161
V/
sVReveal in Finder (if the result is a local file)
p1162
V\u2318\u21a9
p1163
sVEmpty Trash
p1164
Vemptytrash
p1165
sVType a calculation into main window to get the result
p1166
V13*567
p1167
sVSelect the next result in the list
p1168
V\u2193
sVUse predefined web search keywords
p1169
Vgoogle, wiki ...
p1170
sVOpen Clipboard History viewer
p1171
V\u2325\u2318c
p1172
sVFollow keyword by query to reveal file in Finder
p1173
Vfind
p1174
sVSearch the currently typed query in default web search
p1175
V\u2303 \u21a9
p1176
sVReindex iTunes library
p1177
V\u2318r
p1178
sVLock your Mac
p1179
Vlock
p1180
sVShow hidden files in File System Navigation
p1181
V.
sVShow the iTunes Mini Player
p1182
V\u2303 \u2318\u21a9
p1183
sVSearch the currently typed query in Spotlight
p1184
V\u2325\u21a9
p1185
sVCopy selected clip to current Clipboard
p1186
V\u2318c
p1187
sVAction the currently selected item
p1188
V\u21a9
sVFollow keyword by a word and get a definition
p1189
Vdefine
p1190
sVTo launch an application simply start typing its name, then hit Return
p1191
Vapp name
p1192
sVFollow a space with your query to open a file
p1193
Vspacebar
p1194
sVFollow keyword by a word and see results with suggested spelling
p1195
Vspell
p1196
sVQuit the running application
p1197
Vquit
p1198
sVBack Track
p1199
V\u2303 \u2318\u2190  or back
p1200
sVUse keyword to clear Clipboard History
p1201
Vclear
p1202
sVNavigate to your home folder
p1203
V~
sVBrowse selected folder in File System Navigation
p1204
V\u2318\u2193
p1205
sVShow Alfred Preferences
p1206
Vpreferences
p1207
sVLog Out
p1208
Vlogout
p1209
sVForce Quit the running application
p1210
Vforcequit
p1211
sVAccess snippets from main Alfred window with this keyword
p1212
Vsnip
p1213
sVMute volume
p1214
Vmute
p1215
sVFollow by a query to search for files that contain this query
p1216
Vin
p1217
sVOpen file or application in default application
p1218
V\u2318o
p1219
sVShow Trash
p1220
Vtrash
p1221
sVAutocomplete
p1222
VTab
p1223
sVSleep your Mac
p1224
Vsleep
p1225
sVAction the # item directly [1-9]
p1226
V\u2318#
p1227
sVRate currently playing song from 0 to 5 stars
p1228
V\u2303 \u2318[0-5]
p1229
sVPrevious Track
p1230
Vprevious
p1231
sVHide the running application
p1232
Vhide
p1233
sVShut Down your Mac
p1234
Vshutdown
p1235
sVSleep your Mac's displays
p1236
Vsleepdisplays
p1237
sVspace Show Alfred
p1238
V\u2325
sVGo up a folder
p1239
Vbackspace
p1240
sVShow list of available Actions for selected Finder item
p1241
V\u2325\u2318\u005c
p1242
sVEject (removable media or all mounted volumes)
p1243
Veject
p1244
sVShow the Preferences Window
p1245
V\u2318,
p1246
sVOpen the file
p1247
V\u2318o
p1248
sVStart an advanced calculation (enable this function in the Calculator Preferences)
p1249
V=
sVGo to last browsed path in the File System Navigation
p1250
Vprevious
p1251
sVNext Track
p1252
V\u2303 \u2318\u2192  or next
p1253
sVShow list of available Actions for selected item
p1254
V\u2303
sVPlay Random Album
p1255
V\u2303 \u2318\u2191 or random
p1256
sVFollow keyword by query to open a file
p1257
Vopen
p1258
sVUse keyword followed by name or email address to send an email using your default email client
p1259
Vemail
p1260
sVStart Screen Saver
p1261
Vscreensaver
p1262
sVRestart your Mac
p1263
Vrestart
p1264
sVPlay / Pause
p1265
V\u2303 \u2318\u2193  or  play/pause
p1266
sVUse keyword to show the iTunes Mini Player
p1267
Vitunes
p1268
sVMaximum volume
p1269
Vvolmax
p1270
sVHalf volume
p1271
Vvolmid
p1272
sVGo up a folder in iTunes Mini Player
p1273
Vbackspace
p1274
sVWhile in the Clipboard Viewer, save current clip as a snippet
p1275
V\u2318s
p1276
ssVVintage Sublime
p1277
(dp1278
Vjump forwards to the end of a word (words can contain punctuation)
p1279
VE
sVappend (open) a new line below the current line
p1280
Vo
sVright
p1281
Vl
sVMove back to end of word
p1282
V\u2303\u2190
p1283
sVappend (open) a new line above the current line
p1284
VO
sVchange (replace) to the end of the line
p1285
Vc$
p1286
sVMove to beginning of file
p1287
V\u2318\u2191
p1288
sVdown
p1289
Vj
sVrepeat last command
p1290
V.
sVinsert at the beginning of the line
p1291
VI
sVchange (replace) to the end of the word
p1292
Vcw
p1293
sVMove back to beginning of word
p1294
V\u2325\u2190
p1295
sVredo
p1296
V\u2303r
p1297
sVMove cursor to first non-white space char
p1298
V\u2318left
p1299
sVchange (replace) entire line
p1300
Vcc
p1301
sVjump forwards to the start of a word
p1302
Vw
sVExit insert mode
p1303
V\u2303c or Esc
p1304
sVinsert before the cursor
p1305
Vi
sVMove forward to end of word
p1306
V\u2303\u2192
p1307
sVMove cursor to end of line
p1308
V\u2318right
p1309
sVinsert (append) at the end of the line
p1310
VA
sVinsert (append) after the cursor
p1311
Va
sVpage up
p1312
V\u2303\u2191
p1313
sVundo
p1314
Vu
sVjump forwards to the end of a word
p1315
Ve
sVMove forward to beginning of word
p1316
V\u2325\u2192
p1317
sVVi Cancel current action
p1318
V\u2303c
p1319
sVdelete line and substitute text (same as cc)
p1320
VS
sVpage down
p1321
V\u2303\u2193
p1322
sVdelete character and substitute text
p1323
Vs
sVreplace a single character
p1324
Vr
sVup
p1325
Vk
sVjump forwards to the start of a word (words can contain punctuation)
p1326
VW
sVMove to end of file
p1327
V\u2318\u2193
p1328
sVExit visual mode
p1329
V\u2303c or Esc
p1330
sVleft
p1331
Vh
ssVOutlook
p1332
(dp1333
VUnderline the selected text
p1334
V\u2318U
p1335
sVNavigate to the previous pane in the Calendar view
p1336
V\u21e7[
p1337
sVQuit Outlook
p1338
V\u2318Q
p1339
sVClose the current open contact and open the next contact
p1340
V]
sVFlag the selected item for follow up, with Tomorrow as Due Date
p1341
V^2
p1342
sVClose the current open note and open the next note in the Notes list
p1343
V]
sVArchive message
p1344
V^e
p1345
sVOpen the Calendar window
p1346
V\u23182
p1347
sVMove the cursor to the end of the current paragraph
p1348
V\u2325\u2193
p1349
sVCreate a new folder in the navigation pane
p1350
V\u2318\u21e7N
p1351
sVDelete the selected message
p1352
VDelete
p1353
sVNext message
p1354
V^]
p1355
sVOpen the selected calendar event
p1356
V\u2318O
p1357
sVIncrease the display size of text in an open message or in the reading pane
p1358
V\u2318+
p1359
sVPaste a selection from the clipboard
p1360
V\u2318V
p1361
sVSend the open message
p1362
V\u2318Return
p1363
sVSave an item
p1364
V\u2318S
p1365
sVRedo the last action
p1366
V\u2318Y
p1367
sVMove the cursor to the beginning of the line
p1368
V\u2318\u2190
p1369
sVCreate a new contact
p1370
V\u2318N
p1371
sVFind text within an item - search
p1372
V\u2318F
p1373
sVMove the selected message to a folder
p1374
V\u21e7 \u2318M
p1375
sVCopy the selected item to a different folder
p1376
V\u21e7 \u2318C
p1377
sVScroll up to the previous screen of text or, if you are at the beginning of a message, display the previous message
p1378
V\u21e7+ Spacebar
p1379
sVDelete the calendar event
p1380
VDelete
p1381
sVIn Day view, move to the next day. In Week and Work Week views, move to the next week. In Month view, move to the next month.
p1382
V\u2318\u2192
p1383
sVIncrease indent
p1384
V}
sVPermanently delete the selected message
p1385
V\u21e7Delete
p1386
sVCycle forward through open windows
p1387
V\u2318~
p1388
sVOpen the Sync Errors or make it the active window
p1389
V\u23188
p1390
sVMove to the Notes window
p1391
V\u23185
p1392
sVMove the cursor to the beginning of the selected text
p1393
V\u2318Home
p1394
sVMove the cursor to the end of the current word
p1395
V\u2325\u2192
p1396
sVCreate a new message
p1397
V\u2318N
p1398
sVOpen the selected item
p1399
V\u2318O
p1400
sVMake the selected text bold
p1401
V\u2318B
p1402
sVFind the previous instance of the text you searched for in an item
p1403
V\u2318\u21e7G
p1404
sVSave the open message and store it in the Drafts folder
p1405
V\u2318S
p1406
sVGo to Mail view
p1407
V\u23181
p1408
sVNavigate to the previous pane in the Mail view
p1409
V\u21e7[
p1410
sVDisplay the previous message
p1411
V[
sVFind the next instance of the text you searched for in an item
p1412
V\u2318G
p1413
sVMove the cursor to the top of the message body
p1414
V\u2318\u2191
p1415
sVDelete the task
p1416
VDelete
p1417
sVStart dictation
p1418
VFnFn
p1419
sVDelete the character to the left of the cursor, or delete the selected text
p1420
VDelete
p1421
sVMark the selected item as Complete
p1422
V^0
p1423
sVDelete the contact
p1424
VDelete
p1425
sVFlag the selected item for follow up, with Next Week as Due Date
p1426
V^4
p1427
sVSend a note as an email
p1428
V\u2318J
p1429
sVMove the cursor to the beginning of the current paragraph
p1430
V\u2325\u2191
p1431
sVMove to the Task window
p1432
V\u23184
p1433
sVClose the current open contact and open the previous contact
p1434
V[
sVAdd an attachment to the open message
p1435
V\u2318E
p1436
sVOpen the selected message in a separate window
p1437
V\u2318O
p1438
sVCycle back through open windows
p1439
V\u21e7 \u2318~
p1440
sVFlag the selected item for follow up, and add a custom Due Date
p1441
V^6
p1442
sVMark selected messages as unread
p1443
V\u21e7 \u2318T
p1444
sVNavigate to the next pane in the Notes view
p1445
V\u21e7]
p1446
sVFlag the selected item for follow up, and add a reminder
p1447
V^=
p1448
sVCreate a new note
p1449
V\u2318N
p1450
sVMove back through controls in a window
p1451
V\u21e7Tab
p1452
sVOpen the selected task
p1453
V\u2318O
p1454
sVStrike through the selected text
p1455
V\u21e7 \u2318X
p1456
sVFlag the selected item for follow up, with Today as Due Date
p1457
V^1
p1458
sVMove the cursor down one line
p1459
V\u2193
sVGo to Tasks view
p1460
V\u23184
p1461
sVDisplay the next message
p1462
V]
sVMake the selected text italic
p1463
V\u2318I
p1464
sVClear the flag for the selected message
p1465
V\u2325 \u2318'
p1466
sVUndo the last action
p1467
V\u2318Z
p1468
sVPaste a selection from the clipboard and match the destination style
p1469
V\u21e7\u2325 \u2318V
p1470
sVMark selected messages as read
p1471
V\u2318T
p1472
sVHide the reading pane or show it on the right
p1473
V\u2318\u005c
p1474
sVOpen the Spelling and Grammar dialog box
p1475
V\u2318:
p1476
sVMove the cursor right one character
p1477
V\u2192
sVNavigate to the next pane in the Calendar view
p1478
V\u21e7]
p1479
sVOpen the Contacts Search window
p1480
V\u23180
p1481
sVFlag the selected item for follow up, with No Due Date
p1482
V^5
p1483
sVMove the cursor to the end of the selected text
p1484
V\u2318End
p1485
sVMove the cursor to the end of the line
p1486
V\u2318\u2192
p1487
sVDo an advanced search in Outlook (add Item Contains filter for searching)
p1488
V\u21e7 \u2318F
p1489
sVReply to the sender of the message or, if the message is from a mailing list, reply to the mailing list
p1490
V\u2318R
p1491
sVNavigate to the previous pane in the Tasks view
p1492
V\u21e7[
p1493
sVHide Outlook
p1494
V\u2318H
p1495
sVMark the selected message as not junk mail
p1496
V\u2318\u21e7\u2325J
p1497
sVForward the message
p1498
V\u2318J
p1499
sVClose the current open note and open the previous note in the Notes list
p1500
V[
sVSend all the messages in the Outbox
p1501
V\u21e7 \u2318K
p1502
sVClose the active window
p1503
V\u2318W
p1504
sVGo to Calendar view
p1505
V\u23182
p1506
sVGo to Notes view
p1507
V\u23185
p1508
sVSwitch the view to include today
p1509
V\u2318T
p1510
sVCut the selected text to the clipboard
p1511
V\u2318X
p1512
sVNavigate to the next pane in the People view
p1513
V\u21e7]
p1514
sVCreate a new task
p1515
V\u2318N
p1516
sVOpen the Outlook Preferences dialog box
p1517
V\u2318,
p1518
sVCopy a selection to the clipboard
p1519
V\u2318C
p1520
sVDecrease the display size of text in an open message or in the reading pane
p1521
V\u2318-
p1522
sVSend a note as an HTML attachment to an email
p1523
V^ \u2318J [First place the focus on the note in the list of notes]
p1524
sVNavigate to the previous pane in the Notes view
p1525
V\u21e7[
p1526
sVPrint an item
p1527
V\u2318P
p1528
sVPrevious message
p1529
V^[
p1530
sVCheck recipient names in the open messages
p1531
V^ \u2318C
p1532
sVInsert a tab stop
p1533
VTab
p1534
sVSearch current folder
p1535
V\u2325 \u2318F
p1536
sVMinimize the active window
p1537
V\u2318M
p1538
sVInsert emoji
p1539
V\u2318^Space
p1540
sVDecrease indent
p1541
V{
sVMove the cursor to the bottom of the message body
p1542
V\u2318\u2193
p1543
sVOpen the selected contact
p1544
V\u2318O
p1545
sVFlag the selected item for follow up, with This Week as Due Date
p1546
V^3
p1547
sVDelete the note
p1548
VDelete
p1549
sVMove the selected item to a different folder
p1550
V\u21e7 \u2318M
p1551
sVGo to Contacts view
p1552
V\u23183
p1553
sVClear the selected item's follow-up flag
p1554
V\u2325\u2318'
p1555
sVScroll down to the next screen of text or, if you are at the end of a message, display the next message
p1556
VSpacebar
p1557
sVCreate new email (in Mail view)
p1558
V\u2318N
p1559
sVMove the cursor left one character
p1560
V\u2190
sVOpen the Sync Status window or make it the active window
p1561
V\u23187
p1562
sVClose the current open task and open the next task in the Tasks list
p1563
V]
sVNavigate to the next pane in the Tasks view
p1564
V\u21e7]
p1565
sVMove forward through controls in a window
p1566
VTab
p1567
sVOpen the selected note
p1568
V\u2318O
p1569
sVNavigate to the previous pane in the People view
p1570
V\u21e7+ [
p1571
sVMove the cursor up one line
p1572
V\u2191
sVScroll up
p1573
VPage up
p1574
sVNavigate to the next pane in the Mail view
p1575
V\u21e7]
p1576
sVSend all messages in the Outbox and receive all incoming messages
p1577
V\u2318K
p1578
sVHide the reading pane or show it below
p1579
V\u21e7 \u2318\u005c )
p1580
sVMinimize or expand the ribbon
p1581
V\u2318\u2325R
p1582
sVMark all messages in a folder as read
p1583
V\u2325 \u2318T
p1584
sVScroll down
p1585
VPage down
p1586
sVMove the cursor to the beginning of the current word
p1587
V\u2325\u2190
p1588
sVSelect all items in the item list, if the item list is the active pane
p1589
V\u2318A
p1590
sVDelete the character to the right side of the cursor, or delete the selected text
p1591
VDelete [If your keyboard doesn't have a  Delete key, use FNDelete]
p1592
sVClose the current open task and open the previous task in the Tasks list
p1593
V[
sVInsert a hyperlink
p1594
V^ \u2318K
p1595
sVCreate a new appointment
p1596
V\u2318N
p1597
sVReply to all
p1598
V\u21e7+  \u2318R
p1599
sVIn Day view, move to the previous day. In Week and Work Week views, move to the previous week. In Month view, move to the previous month.
p1600
V\u2318\u2190
p1601
sVMark the selected message as junk mail
p1602
V\u2318\u21e7J
p1603
sVDelete the current message, and, if the message window is open, close it
p1604
V\u2318Delete
p1605
ssVSublime Text
p1606
(dp1607
VSplit view into four columns
p1608
V\u2318\u23254
p1609
sVJoin line below to the end of the current line
p1610
V\u2318J
p1611
sVSelect all contents of the current parentheses
p1612
V\u2303\u21e7M
p1613
sVExtra cursor on the line above
p1614
V\u2303\u21e7\u2191
p1615
sVDelete from cursor to end of line
p1616
V\u2318K, \u2318K
p1617
sVCycle left through tabs
p1618
V\u2318\u21e7[
p1619
sVUn-indent current line(s)
p1620
V\u2318[
p1621
sVCenter current line vertically in page
p1622
V\u2303L
p1623
sVCycle down through recent tabs
p1624
V\u21e7^Tab
p1625
sVSelect line - Repeat to select next lines
p1626
V\u2318L
p1627
sVComment/un-comment current line
p1628
V\u2318/
p1629
sVScroll down one page
p1630
V\u2303V
p1631
sVOpen last closed tab
p1632
V\u2318\u21e7t
p1633
sVCycle up through recent tabs
p1634
V^Tab
p1635
sVJump to tab in current group where num is 1-9
p1636
V\u2318[NUM]
p1637
sVDelete current line of cursor
p1638
V\u2303\u21e7K
p1639
sVScroll to end of file
p1640
V\u2318\u2193
p1641
sVMove to end of line
p1642
V\u2303E, \u2318Right
p1643
sVInsert line after
p1644
V\u2318\u21a9
p1645
sVScroll to start of file
p1646
V\u2318\u2191
p1647
sVExtra cursor on the line below
p1648
V\u2303\u21e7\u2193
p1649
sVGoto line in current file
p1650
V\u2303G
p1651
sVIndent current line(s)
p1652
V\u2318]
p1653
sVBlock comment current selection
p1654
V\u2318\u2325/
p1655
sVSelect next auto-complete suggestion
p1656
V\u2303Space
p1657
sVSoft undo; jumps to your last change before undoing change when repeated
p1658
V\u2303U
p1659
sVRedo, or repeat last keyboard shortcut command
p1660
V\u2318Y
p1661
sVCommand Pallete
p1662
V\u2318\u21e7P
p1663
sVWrap Selection in html tag
p1664
V\u2303\u21e7W
p1665
sVClear bookmarks
p1666
V\u21e7\u2318F2
p1667
sVColumn selection up
p1668
V\u2303\u21e7\u2191
p1669
sVQuick-open files by name
p1670
V\u2318P or \u2318T
p1671
sVToggle Fullscreen
p1672
V\u2303\u2318F
p1673
sVToggle Sidebar
p1674
V\u2318K, \u2318B
p1675
sVSplit view into three columns
p1676
V\u2318\u23253
p1677
sVMove file to specified group where num is 1-4
p1678
V\u2303\u21e7[NUM]
p1679
sVGoto symbol
p1680
V\u2318R
p1681
sVDelete from cursor to start of line
p1682
V\u2318K\u232b
p1683
sVTransform to Uppercase
p1684
V\u2318K, \u2318U
p1685
sVMove to beginning of text on line
p1686
V\u2318Left
p1687
sVToggle bookmark
p1688
V\u2318F2
p1689
sVJump to closing parentheses Repeat to jump to opening parentheses
p1690
V\u2303M
p1691
sVPrevious bookmark
p1692
V\u21e7F2
p1693
sVMove to beginning of line
p1694
V\u2303A
p1695
sVInsert line before
p1696
V\u2318\u21e7\u21a9
p1697
sVPython Console
p1698
V\u2303`
p1699
sVSet view to grid (4 groups)
p1700
V\u2318\u23255
p1701
sVSelect word - Repeat to select next occurrence
p1702
V\u2318D
p1703
sVPaste and indent correctly
p1704
V\u2318\u21e7V
p1705
sVGoto word in current file
p1706
V
sVShow scope in status bar
p1707
V\u2303\u21e7P
p1708
sVJump to 10th tab in current group
p1709
V\u23180
p1710
sVMove line/selection up
p1711
V\u2318\u2303\u2191
p1712
sVRevert view to single column
p1713
V\u2318\u23251
p1714
sVToggle Distraction Free Mode
p1715
V\u2303\u21e7\u2318F
p1716
sVCycle right through tabs
p1717
V\u2318\u21e7]
p1718
sVMove line/selection down
p1719
V\u2318\u2303\u2193
p1720
sVSelect all occurrences of current selection
p1721
V\u2303\u2318G
p1722
sVReplace
p1723
V\u2318\u2325F
p1724
sVJump to group where num is 1-4
p1725
V\u2303[NUM]
p1726
sVNext bookmark
p1727
VF2
p1728
sVClip text upwards / downwards
p1729
V\u2318\u2303\u2191, \u2318\u2303\u2193
p1730
sVCut line
p1731
V\u2318X
p1732
sVDuplicate line(s)
p1733
V\u2318\u21e7D
p1734
sVColumn selection down
p1735
V\u2303\u21e7\u2193
p1736
sVSplit view into two columns
p1737
V\u2318\u23252
p1738
sVFind
p1739
V\u2318F
p1740
sVFind in files
p1741
V\u2318\u21e7F
p1742
ssVAutoMute Chrome extension
p1743
(dp1744
VMute other tabs
p1745
V\u2325\u21e7o
p1746
sVToggle mute current app
p1747
V\u2325\u21e7m
p1748
sVMute all tabs
p1749
V\u2325\u21e7l
p1750
ssVtrello.com
p1751
(dp1752
VBlue
p1753
V6
sVPink
p1754
V9
sVInsert New Card
p1755
VN
sVPurple
p1756
V5
sVOpen Card
p1757
V\u23ce
sVSky
p1758
V7
sVLabel
p1759
VL
sVClear All Filters
p1760
VX
sVBlack
p1761
V0
sVOrange
p1762
V3
sVArchive Card
p1763
VC
sVRed
p1764
V4
sVOpen Header Boards Menu
p1765
VB
sVNavigate Cards
p1766
V\u2190 \u2193/J \u2191/K \u2192
p1767
sVSave Text
p1768
V\u2318\u23ce
p1769
sVAutocomplete Members
p1770
V@
sVMove Card to Adjacent List
p1771
V, , . < >
p1772
sVOpen Shortcuts Page
p1773
V?
sVDue Date
p1774
VD
sVFocus Search Box
p1775
V/
sVOpen Card Filter Menu
p1776
VF
sVToggle Label Names
p1777
V;
sVToggle Board Menu
p1778
VW
sVAssign Self
p1779
VSpace
p1780
sVQuick Edit Mode
p1781
VE
sVGreen
p1782
V1
sVMy Cards Filter
p1783
VQ
sVAutocomplete Labels
p1784
V^
sVYellow
p1785
V2
sVSubscribe
p1786
VS
sVClose Menu / Cancel Editing
p1787
VEsc
p1788
sVAdd / Remove Members
p1789
VM
sVVote
p1790
VV
sVEdit Title
p1791
VT
sVLime
p1792
V8
ssVFinder
p1793
(dp1794
VHide or show the Sidebar in Finder windows.
p1795
V\u2325\u2318S
p1796
sVOpen the Downloads folder.
p1797
V\u2325\u2318L
p1798
sVOpen the Utilities folder.
p1799
V\u21e7\u2318U
p1800
sVOpen the Documents folder.
p1801
V\u21e7\u2318O
p1802
sVShow the Get Info window for a selected file.
p1803
V\u2318I
p1804
sVUse Quick Look to preview the files.
p1805
V\u2318Y
p1806
sVView the items in a Finder window in columns.
p1807
V\u23183
p1808
sVSee the folders that contain the current folder.
p1809
V\u2318 click a window title
p1810
sVClose the selected folder. This works only when in list view.
p1811
V\u2190
sVHide or show the path bar in Finder windows.
p1812
V\u2325\u2318P
p1813
sVShow the desktop. This works even when you're not in the Finder.
p1814
V\u2318 Mission Control
p1815
sVAdd selected Finder item to the Dock (OS X Mountain Lion or earlier)
p1816
V\u21e7\u2318T
p1817
sVOpen a new Finder window.
p1818
V\u2318N
p1819
sVOpen the Computer window.
p1820
V\u21e7\u2318C
p1821
sVOpen Sound preferences.
p1822
V\u2325 Volume Up or any volume key
p1823
sVOpen the Home folder of the current macOS user account.
p1824
V\u21e7\u2318H
p1825
sVMove: Move the files in the Clipboard from their original location to the current location.
p1826
V\u2325\u2318V
p1827
sVOpen Mission Control preferences.
p1828
V\u2325 Mission Control
p1829
sVEmpty the Trash.
p1830
V\u21e7\u2318 Delete
p1831
sVOpen the Connect to Server window.
p1832
V\u2318K
p1833
sVShow or hide a Finder tab.
p1834
V\u21e7\u2318T
p1835
sVAdd selected Finder item to the Dock (OS X Mavericks or later)
p1836
VCtrl-\u21e7\u2318T
p1837
sVCreate a new folder.
p1838
V\u21e7\u2318N
p1839
sVOpen the selected item.
p1840
V\u2318\u2193
p1841
sVView the items in a Finder window with Cover Flow.
p1842
V\u23184
p1843
sVOpen the All My Files window.
p1844
V\u21e7\u2318F
p1845
sVGo to the previous folder.
p1846
V[
sVView a Quick Look slideshow of the selected files.
p1847
V\u2325\u2318Y
p1848
sVMake an alias of the dragged item.
p1849
V\u2325Command while dragging
p1850
sVOpen iCloud Drive.
p1851
V\u21e7\u2318I
p1852
sVMove the dragged item to another volume or location.
p1853
V\u2318 while dragging
p1854
sVEject the selected disk or volume.
p1855
V\u2318E
p1856
sVStart a Spotlight search in the Finder window.
p1857
V\u2318F
p1858
sVOpen the folder that contains the current folder.
p1859
V\u2318\u2191
p1860
sVOpen the Network window.
p1861
V\u21e7\u2318K
p1862
sVOpen all folders within the selected folder.  [list view].
p1863
V\u2325 click a disclosure triangle
p1864
sVOpen a folder in a separate window and close the current window.
p1865
V\u2325 double-click
p1866
sVShow View Options.
p1867
V\u2318J
p1868
sVOpen the selected folder. This works only when in list view.
p1869
V\u2192
sVView the items in the Finder window as icons.
p1870
V\u23181
p1871
sVView the items in a Finder window as a list.
p1872
V\u23182
p1873
sVShow or hide the Dock. This often works even when you're not in the Finder.
p1874
V\u2325\u2318D
p1875
sVCopy the dragged item.
p1876
V\u2325 while dragging
p1877
sVShow or hide the tab bar when a single tab is open in the current Finder window.
p1878
V\u2318T
p1879
sVShow the original file for the selected alias.
p1880
V\u2318R
p1881
sVTurn display mirroring on or off when your Mac is connected to more than one display.
p1882
V\u2318 Brightness Down
p1883
sVOpen the AirDrop window.
p1884
V\u21e7\u2318R
p1885
sVOpen a Go to Folder window.
p1886
V\u21e7\u2318G
p1887
sVAdd the selected item to the sidebar (OS X Mavericks or later).
p1888
VCtrl-\u2318T
p1889
sVShow or hide the toolbar when a single tab is open in the current Finder window.
p1890
V\u2325\u2318T
p1891
sVMake an alias of the selected item.
p1892
V\u2318L
p1893
sVTurn Target Display Mode on or off.
p1894
V\u2318 Brightness Up
p1895
sVOpen Displays preferences. This works with either Brightness key.
p1896
V\u2325 Brightness Up
p1897
sVMove the selected item to the Trash.
p1898
V\u2318 Delete
p1899
sVOpen the desktop folder.
p1900
V\u21e7\u2318D
p1901
sVDuplicate the selected files.
p1902
V\u2318D
p1903
sVOpen a folder in a separate tab or window.
p1904
V\u2318 double-click
p1905
sVHide or show the status bar in Finder windows.
p1906
V/
sVGo to the next folder.
p1907
V]
sVCreate a new Smart Folder.
p1908
V\u2325\u2318N
p1909
sVUse Quick Look to preview the selected files.
p1910
V\u2318Y
p1911
sVOpen the folder that contains the current folder in a new window.
p1912
V\u2318Ctrl \u2191
p1913
sVEmpty the Trash without confirmation dialog.
p1914
V\u2325\u21e7\u2318 Delete
p1915
ss.